target datalayout = "e-m:e-p270:32:32-p271:32:32-p272:64:64-i64:64-i128:128-f80:128-n8:16:32:64-S128"
target triple = "x86_64-unknown-linux-gnu"

%struct.__jmp_buf_tag = type { [8 x i64], i32, %struct.__sigset_t }
%struct.__sigset_t = type { [16 x i64] }

@pch = internal global ptr null, align 8
@expr_env = internal global [1 x %struct.__jmp_buf_tag] zeroinitializer, align 16

; Function Attrs: nounwind sspstrong uwtable
define internal i32 @get_expr(ptr noundef %mon, ptr noundef %pval, ptr noundef %pp) #0 {
entry:
  %retval = alloca i32, align 4
  %mon.addr = alloca ptr, align 8
  %pval.addr = alloca ptr, align 8
  %pp.addr = alloca ptr, align 8
  store ptr %mon, ptr %mon.addr, align 8
  store ptr %pval, ptr %pval.addr, align 8
  store ptr %pp, ptr %pp.addr, align 8
  %0 = load ptr, ptr %pp.addr, align 8
  %1 = load ptr, ptr %0, align 8
  store ptr %1, ptr @pch, align 8
  %call = call i32 @__sigsetjmp(ptr noundef @expr_env, i32 noundef 0) #20
  %tobool = icmp ne i32 %call, 0
  br i1 %tobool, label %if.then, label %if.end

if.then:                                          ; preds = %entry
  %2 = load ptr, ptr @pch, align 8
  %3 = load ptr, ptr %pp.addr, align 8
  store ptr %2, ptr %3, align 8
  store i32 -1, ptr %retval, align 4
  br label %return

if.end:                                           ; preds = %entry
  br label %while.cond

while.cond:                                       ; preds = %while.body, %if.end
  %call1 = call ptr @__ctype_b_loc() #14
  %4 = load ptr, ptr %call1, align 8
  %5 = load ptr, ptr @pch, align 8
  %6 = load i8, ptr %5, align 1
  %conv = zext i8 %6 to i32
  %idxprom = sext i32 %conv to i64
  %arrayidx = getelementptr i16, ptr %4, i64 %idxprom
  %7 = load i16, ptr %arrayidx, align 2
  %conv2 = zext i16 %7 to i32
  %and = and i32 %conv2, 8192
  %tobool3 = icmp ne i32 %and, 0
  br i1 %tobool3, label %while.body, label %while.end

while.body:                                       ; preds = %while.cond
  %8 = load ptr, ptr @pch, align 8
  %incdec.ptr = getelementptr i8, ptr %8, i32 1
  store ptr %incdec.ptr, ptr @pch, align 8
  br label %while.cond, !llvm.loop !38

while.end:                                        ; preds = %while.cond
  %9 = load ptr, ptr %mon.addr, align 8
  %call4 = call i64 @expr_sum(ptr noundef %9)
  %10 = load ptr, ptr %pval.addr, align 8
  store i64 %call4, ptr %10, align 8
  %11 = load ptr, ptr @pch, align 8
  %12 = load ptr, ptr %pp.addr, align 8
  store ptr %11, ptr %12, align 8
  store i32 0, ptr %retval, align 4
  br label %return

return:                                           ; preds = %while.end, %if.then
  %13 = load i32, ptr %retval, align 4
  ret i32 %13
}