; Function Attrs: nounwind sspstrong uwtable
define internal fastcc range(i32 -1, 1) i32 @get_expr(ptr noundef %mon, ptr noundef nonnull writeonly captures(none) %pval, ptr noundef nonnull captures(none) %pp) unnamed_addr #0 {
entry:
  %0 = load ptr, ptr %pp, align 8
  store ptr %0, ptr @pch, align 8
  %call = call i32 @__sigsetjmp(ptr noundef nonnull @expr_env, i32 noundef 0) #25
  %tobool.not = icmp eq i32 %call, 0
  br i1 %tobool.not, label %while.cond.preheader, label %return

while.cond.preheader:                             ; preds = %entry
  %call1 = call ptr @__ctype_b_loc() #21
  %1 = load ptr, ptr %call1, align 8
  %pch.promoted = load ptr, ptr @pch, align 8
  %2 = load i8, ptr %pch.promoted, align 1
  %idxprom4 = zext i8 %2 to i64
  %arrayidx5 = getelementptr i16, ptr %1, i64 %idxprom4
  %3 = load i16, ptr %arrayidx5, align 2
  %4 = and i16 %3, 8192
  %tobool3.not6 = icmp eq i16 %4, 0
  br i1 %tobool3.not6, label %while.end, label %while.body

while.body:                                       ; preds = %while.cond.preheader, %while.body
  %incdec.ptr37 = phi ptr [ %incdec.ptr, %while.body ], [ %pch.promoted, %while.cond.preheader ]
  %incdec.ptr = getelementptr i8, ptr %incdec.ptr37, i64 1
  %5 = load i8, ptr %incdec.ptr, align 1
  %idxprom = zext i8 %5 to i64
  %arrayidx = getelementptr i16, ptr %1, i64 %idxprom
  %6 = load i16, ptr %arrayidx, align 2
  %7 = and i16 %6, 8192
  %tobool3.not = icmp eq i16 %7, 0
  br i1 %tobool3.not, label %while.cond.while.end_crit_edge, label %while.body, !llvm.loop !43

while.cond.while.end_crit_edge:                   ; preds = %while.body
  store ptr %incdec.ptr, ptr @pch, align 8
  br label %while.end

while.end:                                        ; preds = %while.cond.while.end_crit_edge, %while.cond.preheader
  %call4 = call fastcc i64 @expr_sum(ptr noundef %mon)
  store i64 %call4, ptr %pval, align 8
  br label %return

return:                                           ; preds = %entry, %while.end
  %retval.0 = phi i32 [ 0, %while.end ], [ -1, %entry ]
  %storemerge = load ptr, ptr @pch, align 8
  store ptr %storemerge, ptr %pp, align 8
  ret i32 %retval.0
}